; Function Attrs: mustprogress uwtable
define i64 @_ZN2cv6detail11PlaneWarper4warpERKNS_11_InputArrayES4_S4_iiRKNS_12_OutputArrayE(ptr noundef nonnull align 8 dereferenceable(168) %0, ptr noundef nonnull align 8 dereferenceable(24) %1, ptr noundef nonnull align 8 dereferenceable(24) %2, ptr noundef nonnull align 8 dereferenceable(24) %3, i32 noundef %4, i32 noundef %5, ptr noundef nonnull align 8 dereferenceable(24) %6) unnamed_addr #3 align 2 personality ptr @__gxx_personality_v0 {
  %8 = alloca [3 x float], align 4
  %9 = alloca %"class.cv::Mat_", align 8
  %10 = alloca %"class.cv::_InputArray", align 8
  call void @llvm.lifetime.start.p0(i64 12, ptr nonnull %8) #22
  call void @llvm.memset.p0.i64(ptr noundef nonnull align 4 dereferenceable(12) %8, i8 0, i64 12, i1 false)
  call void @llvm.lifetime.start.p0(i64 96, ptr nonnull %9) #22
  call void @_ZN2cv3MatC2EiiiPvm(ptr noundef nonnull align 8 dereferenceable(96) %9, i32 noundef 3, i32 noundef 1, i32 noundef 5, ptr noundef nonnull %8, i64 noundef 0)
  call void @llvm.lifetime.start.p0(i64 24, ptr nonnull %10) #22
  %11 = getelementptr inbounds nuw i8, ptr %10, i64 16
  store i32 0, ptr %11, align 8, !tbaa !203
  %12 = getelementptr inbounds nuw i8, ptr %10, i64 20
  store i32 0, ptr %12, align 4, !tbaa !204
  store i32 -2130640891, ptr %10, align 8, !tbaa !205
  %13 = getelementptr inbounds nuw i8, ptr %10, i64 8
  store ptr %9, ptr %13, align 8, !tbaa !160
  %14 = load ptr, ptr %0, align 8, !tbaa !14
  %15 = getelementptr inbounds nuw i8, ptr %14, i64 96
  %16 = load ptr, ptr %15, align 8
  %17 = invoke i64 %16(ptr noundef nonnull align 8 dereferenceable(168) %0, ptr noundef nonnull align 8 dereferenceable(24) %1, ptr noundef nonnull align 8 dereferenceable(24) %2, ptr noundef nonnull align 8 dereferenceable(24) %3, ptr noundef nonnull align 8 dereferenceable(24) %10, i32 noundef %4, i32 noundef %5, ptr noundef nonnull align 8 dereferenceable(24) %6)
          to label %18 unwind label %19

18:                                               ; preds = %7
  call void @llvm.lifetime.end.p0(i64 24, ptr nonnull %10) #22
  call void @_ZN2cv3MatD2Ev(ptr noundef nonnull align 8 dereferenceable(96) %9) #22
  call void @llvm.lifetime.end.p0(i64 96, ptr nonnull %9) #22
  call void @llvm.lifetime.end.p0(i64 12, ptr nonnull %8) #22
  ret i64 %17

19:                                               ; preds = %7
  %20 = landingpad { ptr, i32 }
          cleanup
  call void @llvm.lifetime.end.p0(i64 24, ptr nonnull %10) #22
  call void @_ZN2cv3MatD2Ev(ptr noundef nonnull align 8 dereferenceable(96) %9) #22
  call void @llvm.lifetime.end.p0(i64 96, ptr nonnull %9) #22
  call void @llvm.lifetime.end.p0(i64 12, ptr nonnull %8) #22
  resume { ptr, i32 } %20
}